; Function Attrs: mustprogress uwtable
define hidden void @_ZN4cvc58internal3smt9SmtSolver15pushPropContextEv(ptr noundef nonnull readonly align 8 captures(none) dereferenceable(1288) %0) local_unnamed_addr #4 align 2 personality ptr @__gxx_personality_v0 {
  %2 = alloca %"class.cvc5::internal::CodeTimer", align 8
  call void @llvm.lifetime.start.p0(i64 16, ptr nonnull %2) #24
  %3 = getelementptr inbounds nuw i8, ptr %0, i64 1072
  %4 = load ptr, ptr %3, align 8, !tbaa !397
  %5 = getelementptr inbounds nuw i8, ptr %4, i64 56
  call void @_ZN4cvc58internal9CodeTimerC1ERNS0_9TimerStatEb(ptr noundef nonnull align 8 dereferenceable(9) %2, ptr noundef nonnull align 8 dereferenceable(8) %5, i1 noundef zeroext false)
  %6 = getelementptr inbounds nuw i8, ptr %0, i64 1088
  %7 = load ptr, ptr %6, align 8, !tbaa !41
  invoke void @_ZN4cvc58internal4prop10PropEngine4pushEv(ptr noundef nonnull align 8 dereferenceable(416) %7)
          to label %8 unwind label %9

8:                                                ; preds = %1
  call void @_ZN4cvc58internal9CodeTimerD1Ev(ptr noundef nonnull align 8 dereferenceable(9) %2) #24
  call void @llvm.lifetime.end.p0(i64 16, ptr nonnull %2) #24
  ret void

9:                                                ; preds = %1
  %10 = landingpad { ptr, i32 }
          cleanup
  call void @_ZN4cvc58internal9CodeTimerD1Ev(ptr noundef nonnull align 8 dereferenceable(9) %2) #24
  call void @llvm.lifetime.end.p0(i64 16, ptr nonnull %2) #24
  resume { ptr, i32 } %10
}